target datalayout = "e-m:e-p270:32:32-p271:32:32-p272:64:64-i64:64-i128:128-f80:128-n8:16:32:64-S128"
target triple = "x86_64-pc-linux-gnu"

%struct.darktable_t = type { %struct.dt_codepath_t, i32, i32, ptr, ptr, ptr, ptr, ptr, ptr, ptr, ptr, ptr, ptr, ptr, ptr, ptr, ptr, ptr, ptr, ptr, ptr, ptr, ptr, ptr, ptr, ptr, ptr, ptr, ptr, ptr, [64 x %struct.dt_pthread_mutex_t], %struct.dt_pthread_mutex_t, %struct.dt_pthread_mutex_t, %struct.dt_pthread_mutex_t, %struct.dt_pthread_mutex_t, %struct.dt_pthread_mutex_t, ptr, ptr, ptr, ptr, ptr, ptr, ptr, ptr, ptr, ptr, ptr, ptr, ptr, %struct.dt_lua_state_t, ptr, double, ptr, i32, [47 x i32], i32, i32, ptr, ptr, %struct.dt_sys_resources_t, %struct.dt_backthumb_t, %struct.dt_gimp_t }
%struct.dt_codepath_t = type { i8, [3 x i8] }
%struct.dt_pthread_mutex_t = type { %union.pthread_mutex_t }
%union.pthread_mutex_t = type { %struct.__pthread_mutex_s }
%struct.__pthread_mutex_s = type { i32, i32, i32, i32, i32, i16, i16, %struct.__pthread_internal_list }
%struct.__pthread_internal_list = type { ptr, ptr }
%struct.dt_lua_state_t = type { i32 }
%struct.dt_sys_resources_t = type { i64, i64, ptr, ptr, i32 }
%struct.dt_backthumb_t = type { double, double, i32, i32, i32, i32 }
%struct.dt_gimp_t = type { i32, ptr, ptr, i32, i32 }
%struct.dt_masks_form_t = type { ptr, i32, ptr, [2 x float], [128 x i8], i32, i32 }
%struct.dt_masks_point_group_t = type { i32, i32, i32, float }
%struct.dt_masks_functions_t = type { i32, ptr, ptr, ptr, ptr, ptr, ptr, ptr, ptr, ptr, ptr, ptr, ptr, ptr, ptr, ptr, ptr, ptr, ptr, ptr }
%struct.dt_masks_form_gui_t = type { ptr, ptr, ptr, i32, float, float, float, float, float, float, float, float, i32, i32, i32, i32, i32, i32, i32, i32, i32, i32, i32, i32, i32, i32, i32, i32, i32, i32, i32, i32, i32, i32, float, float, i32, i32, i32, i32, i32, i32, ptr, ptr, i32, i32, i64 }

@darktable = external global %struct.darktable_t, align 8

; Function Attrs: nounwind uwtable
define internal i32 @_group_events_button_released(ptr noundef %0, float noundef %1, float noundef %2, i32 noundef %3, i32 noundef %4, ptr noundef %5, i32 noundef %6, ptr noundef %7, i32 noundef %8) #0 {
  %10 = alloca i32, align 4
  %11 = alloca ptr, align 8
  %12 = alloca float, align 4
  %13 = alloca float, align 4
  %14 = alloca i32, align 4
  %15 = alloca i32, align 4
  %16 = alloca ptr, align 8
  %17 = alloca i32, align 4
  %18 = alloca ptr, align 8
  %19 = alloca i32, align 4
  %20 = alloca ptr, align 8
  %21 = alloca ptr, align 8
  %22 = alloca i32, align 4
  store ptr %0, ptr %11, align 8, !tbaa !71
  store float %1, ptr %12, align 4, !tbaa !11
  store float %2, ptr %13, align 4, !tbaa !11
  store i32 %3, ptr %14, align 4, !tbaa !17
  store i32 %4, ptr %15, align 4, !tbaa !17
  store ptr %5, ptr %16, align 8, !tbaa !13
  store i32 %6, ptr %17, align 4, !tbaa !17
  store ptr %7, ptr %18, align 8, !tbaa !15
  store i32 %8, ptr %19, align 4, !tbaa !17
  %23 = load ptr, ptr %18, align 8, !tbaa !15
  %24 = getelementptr inbounds nuw %struct.dt_masks_form_gui_t, ptr %23, i32 0, i32 36
  %25 = load i32, ptr %24, align 4, !tbaa !117
  %26 = icmp sge i32 %25, 0
  br i1 %26, label %27, label %71

27:                                               ; preds = %9
  call void @llvm.lifetime.start.p0(i64 8, ptr %20) #10
  %28 = load ptr, ptr %16, align 8, !tbaa !13
  %29 = getelementptr inbounds nuw %struct.dt_masks_form_t, ptr %28, i32 0, i32 0
  %30 = load ptr, ptr %29, align 8, !tbaa !19
  %31 = load ptr, ptr %18, align 8, !tbaa !15
  %32 = getelementptr inbounds nuw %struct.dt_masks_form_gui_t, ptr %31, i32 0, i32 36
  %33 = load i32, ptr %32, align 4, !tbaa !117
  %34 = call ptr @g_list_nth_data(ptr noundef %30, i32 noundef %33)
  store ptr %34, ptr %20, align 8, !tbaa !26
  call void @llvm.lifetime.start.p0(i64 8, ptr %21) #10
  %35 = load ptr, ptr getelementptr inbounds nuw (%struct.darktable_t, ptr @darktable, i32 0, i32 9), align 8, !tbaa !28
  %36 = load ptr, ptr %20, align 8, !tbaa !26
  %37 = getelementptr inbounds nuw %struct.dt_masks_point_group_t, ptr %36, i32 0, i32 0
  %38 = load i32, ptr %37, align 4, !tbaa !65
  %39 = call ptr @dt_masks_get_from_id(ptr noundef %35, i32 noundef %38)
  store ptr %39, ptr %21, align 8, !tbaa !13
  %40 = load ptr, ptr %21, align 8, !tbaa !13
  %41 = icmp ne ptr %40, null
  br i1 %41, label %42, label %67

42:                                               ; preds = %27
  %43 = load ptr, ptr %21, align 8, !tbaa !13
  %44 = getelementptr inbounds nuw %struct.dt_masks_form_t, ptr %43, i32 0, i32 2
  %45 = load ptr, ptr %44, align 8, !tbaa !67
  %46 = icmp ne ptr %45, null
  br i1 %46, label %47, label %67

47:                                               ; preds = %42
  %48 = load ptr, ptr %21, align 8, !tbaa !13
  %49 = getelementptr inbounds nuw %struct.dt_masks_form_t, ptr %48, i32 0, i32 2
  %50 = load ptr, ptr %49, align 8, !tbaa !67
  %51 = getelementptr inbounds nuw %struct.dt_masks_functions_t, ptr %50, i32 0, i32 18
  %52 = load ptr, ptr %51, align 8, !tbaa !141
  %53 = load ptr, ptr %11, align 8, !tbaa !71
  %54 = load float, ptr %12, align 4, !tbaa !11
  %55 = load float, ptr %13, align 4, !tbaa !11
  %56 = load i32, ptr %14, align 4, !tbaa !17
  %57 = load i32, ptr %15, align 4, !tbaa !17
  %58 = load ptr, ptr %21, align 8, !tbaa !13
  %59 = load ptr, ptr %20, align 8, !tbaa !26
  %60 = getelementptr inbounds nuw %struct.dt_masks_point_group_t, ptr %59, i32 0, i32 1
  %61 = load i32, ptr %60, align 4, !tbaa !90
  %62 = load ptr, ptr %18, align 8, !tbaa !15
  %63 = load ptr, ptr %18, align 8, !tbaa !15
  %64 = getelementptr inbounds nuw %struct.dt_masks_form_gui_t, ptr %63, i32 0, i32 36
  %65 = load i32, ptr %64, align 4, !tbaa !117
  %66 = call i32 %52(ptr noundef %53, float noundef %54, float noundef %55, i32 noundef %56, i32 noundef %57, ptr noundef %58, i32 noundef %61, ptr noundef %62, i32 noundef %65)
  store i32 %66, ptr %10, align 4
  store i32 1, ptr %22, align 4
  br label %68

67:                                               ; preds = %42, %27
  store i32 0, ptr %22, align 4
  br label %68

68:                                               ; preds = %67, %47
  call void @llvm.lifetime.end.p0(i64 8, ptr %21) #10
  call void @llvm.lifetime.end.p0(i64 8, ptr %20) #10
  %69 = load i32, ptr %22, align 4
  switch i32 %69, label %74 [
    i32 0, label %70
    i32 1, label %72
  ]

70:                                               ; preds = %68
  br label %71

71:                                               ; preds = %70, %9
  store i32 0, ptr %10, align 4
  br label %72

72:                                               ; preds = %71, %68
  %73 = load i32, ptr %10, align 4
  ret i32 %73

74:                                               ; preds = %68
  unreachable
}